; Listing generated by Microsoft (R) Optimizing Compiler Version 18.00.40629.0 

	TITLE	C:\Users\Dell\Desktop\vlmcsd\src\shared_globals.c
	.686P
	.XMM
	include listing.inc
	.model	flat

INCLUDELIB OLDNAMES

PUBLIC	_ExitLevel
PUBLIC	_fn_exe
PUBLIC	_InetdMode
PUBLIC	_fn_data
PUBLIC	_KmsData
PUBLIC	_defaultport
PUBLIC	_ExplicitDataLoad
PUBLIC	_CheckClientTime
PUBLIC	_VLRenewalInterval
PUBLIC	_WhitelistingLevel
PUBLIC	_VLActivationInterval
PUBLIC	_UseServerRpcBTFN
PUBLIC	_RandomizationLevel
PUBLIC	_UseServerRpcNDR64
PUBLIC	_logverbose
PUBLIC	_Lcid
PUBLIC	_MaintainClients
PUBLIC	_StartEmpty
PUBLIC	_ServerTimeout
PUBLIC	_cIPv6
PUBLIC	_PublicIPProtectionLevel
PUBLIC	_ServiceShutdown
PUBLIC	_cIPv4
PUBLIC	_MaxTasks
PUBLIC	_numsockets
PUBLIC	_IsNTService
PUBLIC	_fn_log
PUBLIC	_LogDateAndTime
PUBLIC	_logstdout
PUBLIC	_DisconnectImmediately
PUBLIC	_UseMultiplexedRpc
PUBLIC	_UseClientRpcBTFN
PUBLIC	_UseClientRpcNDR64
PUBLIC	??_C@_0O@LEPLNMP@private?5build?$AA@		; `string'
PUBLIC	??_C@_04EMGFNKGN@IPv4?$AA@			; `string'
PUBLIC	??_C@_04HOFDLIOP@IPv6?$AA@			; `string'
PUBLIC	??_C@_04ENDLDGHK@1688?$AA@			; `string'
PUBLIC	_Version
	ALIGN	4

_ExitLevel DB	01H DUP (?)
	ALIGN	4

_fn_exe	DD	01H DUP (?)
_InetdMode DB	01H DUP (?)
	ALIGN	4

_fn_data DD	01H DUP (?)
_KmsData DD	01H DUP (?)
COMM	_KmsResponseParameters:DWORD
_ExplicitDataLoad DB 01H DUP (?)
	ALIGN	4

_CheckClientTime DB 01H DUP (?)
	ALIGN	4

_WhitelistingLevel DD 01H DUP (?)
_logverbose DB	01H DUP (?)
	ALIGN	4

_Lcid	DW	01H DUP (?)
	ALIGN	4

_MaintainClients DB 01H DUP (?)
	ALIGN	4

_StartEmpty DB	01H DUP (?)
	ALIGN	4

_PublicIPProtectionLevel DD 01H DUP (?)
_ServiceShutdown DB 01H DUP (?)
	ALIGN	4

_numsockets DD	01H DUP (?)
COMM	_SocketList:DWORD
COMM	_MaxTaskSemaphore:DWORD
COMM	_global_argc:DWORD
COMM	_global_argv:DWORD
_fn_log	DD	01H DUP (?)
_logstdout DB	01H DUP (?)
	ALIGN	4

_DisconnectImmediately DB 01H DUP (?)
COMM	_logmutex:BYTE:018H
_DATA	ENDS
;	COMDAT ??_C@_04ENDLDGHK@1688?$AA@
CONST	SEGMENT
??_C@_04ENDLDGHK@1688?$AA@ DB '1688', 00H		; `string'
CONST	ENDS
;	COMDAT ??_C@_04HOFDLIOP@IPv6?$AA@
CONST	SEGMENT
??_C@_04HOFDLIOP@IPv6?$AA@ DB 'IPv6', 00H		; `string'
CONST	ENDS
;	COMDAT ??_C@_04EMGFNKGN@IPv4?$AA@
CONST	SEGMENT
??_C@_04EMGFNKGN@IPv4?$AA@ DB 'IPv4', 00H		; `string'
CONST	ENDS
;	COMDAT ??_C@_0O@LEPLNMP@private?5build?$AA@
CONST	SEGMENT
??_C@_0O@LEPLNMP@private?5build?$AA@ DB 'private build', 00H ; `string'
_UseServerRpcBTFN DB 01H
_RandomizationLevel DB 01H
_defaultport DD	FLAT:??_C@_04ENDLDGHK@1688?$AA@
_VLRenewalInterval DD 02760H
_VLActivationInterval DD 078H
_UseServerRpcNDR64 DB 01H
_IsNTService DB	01H
_LogDateAndTime DB 01H
	ORG $+1
_ServerTimeout DD 01eH
_MaxTasks DD	07fffffffH
_cIPv6	DD	FLAT:??_C@_04HOFDLIOP@IPv6?$AA@
_cIPv4	DD	FLAT:??_C@_04EMGFNKGN@IPv4?$AA@
_UseMultiplexedRpc DB 01H
_UseClientRpcBTFN DB 01H
_UseClientRpcNDR64 DB 01H
	ORG $+1
_Version DD	FLAT:??_C@_0O@LEPLNMP@private?5build?$AA@
END
